target datalayout = "e-m:e-p270:32:32-p271:32:32-p272:64:64-i64:64-i128:128-f80:128-n8:16:32:64-S128"
target triple = "x86_64-unknown-linux-gnu"

%"class.sat::literal" = type { i32 }
%"struct.sat::npn3_finder::quaternary" = type { %"class.sat::literal", %"class.sat::literal", %"class.sat::literal", %"class.sat::literal", ptr }
%class.default_hash_entry.84 = type { i32, i32, %"struct.sat::npn3_finder::quaternary" }

@_ZN3sat11npn3_finder10quaternaryC1ENS_7literalES2_S2_S2_PNS_6clauseE = hidden unnamed_addr alias void (ptr, i32, i32, i32, i32, ptr), ptr @_ZN3sat11npn3_finder10quaternaryC2ENS_7literalES2_S2_S2_PNS_6clauseE

; Function Attrs: mustprogress nounwind uwtable
define linkonce_odr hidden noundef nonnull align 8 dereferenceable(24) ptr @_ZN18default_hash_entryIN3sat11npn3_finder10quaternaryEE8get_dataEv(ptr noundef nonnull align 8 dereferenceable(32) %this) #4 comdat align 2 {
entry:
  %this.addr = alloca ptr, align 8
  store ptr %this, ptr %this.addr, align 8
  %this1 = load ptr, ptr %this.addr, align 8
  %m_data = getelementptr inbounds %class.default_hash_entry.84, ptr %this1, i32 0, i32 2
  ret ptr %m_data
}

; Function Attrs: mustprogress uwtable
define linkonce_odr hidden noundef zeroext i1 @_ZNK14core_hashtableI18default_hash_entryIN3sat11npn3_finder10quaternaryEENS3_4hashENS3_2eqEE4findERKS3_RS3_(ptr noundef nonnull align 8 dereferenceable(20) %this, ptr noundef nonnull align 8 dereferenceable(24) %k, ptr noundef nonnull align 8 dereferenceable(24) %r) #5 comdat align 2 {
entry:
  %retval = alloca i1, align 1
  %this.addr = alloca ptr, align 8
  %k.addr = alloca ptr, align 8
  %r.addr = alloca ptr, align 8
  %e = alloca ptr, align 8
  store ptr %this, ptr %this.addr, align 8
  store ptr %k, ptr %k.addr, align 8
  store ptr %r, ptr %r.addr, align 8
  %this1 = load ptr, ptr %this.addr, align 8
  %0 = load ptr, ptr %k.addr, align 8
  %call = call noundef ptr @_ZNK14core_hashtableI18default_hash_entryIN3sat11npn3_finder10quaternaryEENS3_4hashENS3_2eqEE9find_coreERKS3_(ptr noundef nonnull align 8 dereferenceable(20) %this1, ptr noundef nonnull align 8 dereferenceable(24) %0)
  store ptr %call, ptr %e, align 8
  %1 = load ptr, ptr %e, align 8
  %cmp = icmp ne ptr %1, null
  br i1 %cmp, label %if.then, label %if.end

if.then:                                          ; preds = %entry
  %2 = load ptr, ptr %e, align 8
  %call2 = call noundef nonnull align 8 dereferenceable(24) ptr @_ZN18default_hash_entryIN3sat11npn3_finder10quaternaryEE8get_dataEv(ptr noundef nonnull align 8 dereferenceable(32) %2)
  %3 = load ptr, ptr %r.addr, align 8
  call void @llvm.memcpy.p0.p0.i64(ptr align 8 %3, ptr align 8 %call2, i64 24, i1 false)
  store i1 true, ptr %retval, align 1
  br label %return

if.end:                                           ; preds = %entry
  store i1 false, ptr %retval, align 1
  br label %return

return:                                           ; preds = %if.end, %if.then
  %4 = load i1, ptr %retval, align 1
  ret i1 %4
}

; Function Attrs: mustprogress uwtable
define hidden noundef zeroext i1 @_ZNK3sat11npn3_finder14has_quaternaryERK9hashtableINS0_10quaternaryENS2_4hashENS2_2eqEERKS1_INS0_7ternaryENS8_4hashENS8_2eqEENS_7literalESE_SE_SE_RPNS_6clauseE(ptr noundef nonnull align 8 dereferenceable(416) %this, ptr noundef nonnull align 8 dereferenceable(20) %quaternaries, ptr noundef nonnull align 8 dereferenceable(20) %ternaries, i32 %w.coerce, i32 %x.coerce, i32 %y.coerce, i32 %z.coerce, ptr noundef nonnull align 8 dereferenceable(8) %c) #5 align 2 {
entry:
  %retval = alloca i1, align 1
  %w = alloca %"class.sat::literal", align 4
  %x = alloca %"class.sat::literal", align 4
  %y = alloca %"class.sat::literal", align 4
  %z = alloca %"class.sat::literal", align 4
  %this.addr = alloca ptr, align 8
  %quaternaries.addr = alloca ptr, align 8
  %ternaries.addr = alloca ptr, align 8
  %c.addr = alloca ptr, align 8
  %q = alloca %"struct.sat::npn3_finder::quaternary", align 8
  %agg.tmp = alloca %"class.sat::literal", align 4
  %agg.tmp5 = alloca %"class.sat::literal", align 4
  %agg.tmp6 = alloca %"class.sat::literal", align 4
  %agg.tmp7 = alloca %"class.sat::literal", align 4
  %agg.tmp12 = alloca %"class.sat::literal", align 4
  %agg.tmp13 = alloca %"class.sat::literal", align 4
  %agg.tmp14 = alloca %"class.sat::literal", align 4
  %agg.tmp19 = alloca %"class.sat::literal", align 4
  %agg.tmp20 = alloca %"class.sat::literal", align 4
  %agg.tmp21 = alloca %"class.sat::literal", align 4
  %agg.tmp27 = alloca %"class.sat::literal", align 4
  %agg.tmp28 = alloca %"class.sat::literal", align 4
  %agg.tmp29 = alloca %"class.sat::literal", align 4
  %agg.tmp35 = alloca %"class.sat::literal", align 4
  %agg.tmp36 = alloca %"class.sat::literal", align 4
  %agg.tmp37 = alloca %"class.sat::literal", align 4
  %coerce.dive = getelementptr inbounds %"class.sat::literal", ptr %w, i32 0, i32 0
  store i32 %w.coerce, ptr %coerce.dive, align 4
  %coerce.dive1 = getelementptr inbounds %"class.sat::literal", ptr %x, i32 0, i32 0
  store i32 %x.coerce, ptr %coerce.dive1, align 4
  %coerce.dive2 = getelementptr inbounds %"class.sat::literal", ptr %y, i32 0, i32 0
  store i32 %y.coerce, ptr %coerce.dive2, align 4
  %coerce.dive3 = getelementptr inbounds %"class.sat::literal", ptr %z, i32 0, i32 0
  store i32 %z.coerce, ptr %coerce.dive3, align 4
  store ptr %this, ptr %this.addr, align 8
  store ptr %quaternaries, ptr %quaternaries.addr, align 8
  store ptr %ternaries, ptr %ternaries.addr, align 8
  store ptr %c, ptr %c.addr, align 8
  %this4 = load ptr, ptr %this.addr, align 8
  call void @llvm.memcpy.p0.p0.i64(ptr align 4 %agg.tmp, ptr align 4 %w, i64 4, i1 false)
  call void @llvm.memcpy.p0.p0.i64(ptr align 4 %agg.tmp5, ptr align 4 %x, i64 4, i1 false)
  call void @llvm.memcpy.p0.p0.i64(ptr align 4 %agg.tmp6, ptr align 4 %y, i64 4, i1 false)
  call void @llvm.memcpy.p0.p0.i64(ptr align 4 %agg.tmp7, ptr align 4 %z, i64 4, i1 false)
  %coerce.dive8 = getelementptr inbounds %"class.sat::literal", ptr %agg.tmp, i32 0, i32 0
  %0 = load i32, ptr %coerce.dive8, align 4
  %coerce.dive9 = getelementptr inbounds %"class.sat::literal", ptr %agg.tmp5, i32 0, i32 0
  %1 = load i32, ptr %coerce.dive9, align 4
  %coerce.dive10 = getelementptr inbounds %"class.sat::literal", ptr %agg.tmp6, i32 0, i32 0
  %2 = load i32, ptr %coerce.dive10, align 4
  %coerce.dive11 = getelementptr inbounds %"class.sat::literal", ptr %agg.tmp7, i32 0, i32 0
  %3 = load i32, ptr %coerce.dive11, align 4
  call void @_ZN3sat11npn3_finder10quaternaryC1ENS_7literalES2_S2_S2_PNS_6clauseE(ptr noundef nonnull align 8 dereferenceable(24) %q, i32 %0, i32 %1, i32 %2, i32 %3, ptr noundef null)
  %4 = load ptr, ptr %quaternaries.addr, align 8
  %call = call noundef zeroext i1 @_ZNK14core_hashtableI18default_hash_entryIN3sat11npn3_finder10quaternaryEENS3_4hashENS3_2eqEE4findERKS3_RS3_(ptr noundef nonnull align 8 dereferenceable(20) %4, ptr noundef nonnull align 8 dereferenceable(24) %q, ptr noundef nonnull align 8 dereferenceable(24) %q)
  br i1 %call, label %if.then, label %if.end

if.then:                                          ; preds = %entry
  %orig = getelementptr inbounds %"struct.sat::npn3_finder::quaternary", ptr %q, i32 0, i32 4
  %5 = load ptr, ptr %orig, align 8
  %6 = load ptr, ptr %c.addr, align 8
  store ptr %5, ptr %6, align 8
  store i1 true, ptr %retval, align 1
  br label %return

if.end:                                           ; preds = %entry
  %7 = load ptr, ptr %ternaries.addr, align 8
  call void @llvm.memcpy.p0.p0.i64(ptr align 4 %agg.tmp12, ptr align 4 %w, i64 4, i1 false)
  call void @llvm.memcpy.p0.p0.i64(ptr align 4 %agg.tmp13, ptr align 4 %x, i64 4, i1 false)
  call void @llvm.memcpy.p0.p0.i64(ptr align 4 %agg.tmp14, ptr align 4 %y, i64 4, i1 false)
  %8 = load ptr, ptr %c.addr, align 8
  %coerce.dive15 = getelementptr inbounds %"class.sat::literal", ptr %agg.tmp12, i32 0, i32 0
  %9 = load i32, ptr %coerce.dive15, align 4
  %coerce.dive16 = getelementptr inbounds %"class.sat::literal", ptr %agg.tmp13, i32 0, i32 0
  %10 = load i32, ptr %coerce.dive16, align 4
  %coerce.dive17 = getelementptr inbounds %"class.sat::literal", ptr %agg.tmp14, i32 0, i32 0
  %11 = load i32, ptr %coerce.dive17, align 4
  %call18 = call noundef zeroext i1 @_ZNK3sat11npn3_finder11has_ternaryERK9hashtableINS0_7ternaryENS2_4hashENS2_2eqEENS_7literalES8_S8_RPNS_6clauseE(ptr noundef nonnull align 8 dereferenceable(416) %this4, ptr noundef nonnull align 8 dereferenceable(20) %7, i32 %9, i32 %10, i32 %11, ptr noundef nonnull align 8 dereferenceable(8) %8)
  br i1 %call18, label %if.then42, label %lor.lhs.false

lor.lhs.false:                                    ; preds = %if.end
  %12 = load ptr, ptr %ternaries.addr, align 8
  call void @llvm.memcpy.p0.p0.i64(ptr align 4 %agg.tmp19, ptr align 4 %w, i64 4, i1 false)
  call void @llvm.memcpy.p0.p0.i64(ptr align 4 %agg.tmp20, ptr align 4 %x, i64 4, i1 false)
  call void @llvm.memcpy.p0.p0.i64(ptr align 4 %agg.tmp21, ptr align 4 %z, i64 4, i1 false)
  %13 = load ptr, ptr %c.addr, align 8
  %coerce.dive22 = getelementptr inbounds %"class.sat::literal", ptr %agg.tmp19, i32 0, i32 0
  %14 = load i32, ptr %coerce.dive22, align 4
  %coerce.dive23 = getelementptr inbounds %"class.sat::literal", ptr %agg.tmp20, i32 0, i32 0
  %15 = load i32, ptr %coerce.dive23, align 4
  %coerce.dive24 = getelementptr inbounds %"class.sat::literal", ptr %agg.tmp21, i32 0, i32 0
  %16 = load i32, ptr %coerce.dive24, align 4
  %call25 = call noundef zeroext i1 @_ZNK3sat11npn3_finder11has_ternaryERK9hashtableINS0_7ternaryENS2_4hashENS2_2eqEENS_7literalES8_S8_RPNS_6clauseE(ptr noundef nonnull align 8 dereferenceable(416) %this4, ptr noundef nonnull align 8 dereferenceable(20) %12, i32 %14, i32 %15, i32 %16, ptr noundef nonnull align 8 dereferenceable(8) %13)
  br i1 %call25, label %if.then42, label %lor.lhs.false26

lor.lhs.false26:                                  ; preds = %lor.lhs.false
  %17 = load ptr, ptr %ternaries.addr, align 8
  call void @llvm.memcpy.p0.p0.i64(ptr align 4 %agg.tmp27, ptr align 4 %w, i64 4, i1 false)
  call void @llvm.memcpy.p0.p0.i64(ptr align 4 %agg.tmp28, ptr align 4 %y, i64 4, i1 false)
  call void @llvm.memcpy.p0.p0.i64(ptr align 4 %agg.tmp29, ptr align 4 %z, i64 4, i1 false)
  %18 = load ptr, ptr %c.addr, align 8
  %coerce.dive30 = getelementptr inbounds %"class.sat::literal", ptr %agg.tmp27, i32 0, i32 0
  %19 = load i32, ptr %coerce.dive30, align 4
  %coerce.dive31 = getelementptr inbounds %"class.sat::literal", ptr %agg.tmp28, i32 0, i32 0
  %20 = load i32, ptr %coerce.dive31, align 4
  %coerce.dive32 = getelementptr inbounds %"class.sat::literal", ptr %agg.tmp29, i32 0, i32 0
  %21 = load i32, ptr %coerce.dive32, align 4
  %call33 = call noundef zeroext i1 @_ZNK3sat11npn3_finder11has_ternaryERK9hashtableINS0_7ternaryENS2_4hashENS2_2eqEENS_7literalES8_S8_RPNS_6clauseE(ptr noundef nonnull align 8 dereferenceable(416) %this4, ptr noundef nonnull align 8 dereferenceable(20) %17, i32 %19, i32 %20, i32 %21, ptr noundef nonnull align 8 dereferenceable(8) %18)
  br i1 %call33, label %if.then42, label %lor.lhs.false34

lor.lhs.false34:                                  ; preds = %lor.lhs.false26
  %22 = load ptr, ptr %ternaries.addr, align 8
  call void @llvm.memcpy.p0.p0.i64(ptr align 4 %agg.tmp35, ptr align 4 %x, i64 4, i1 false)
  call void @llvm.memcpy.p0.p0.i64(ptr align 4 %agg.tmp36, ptr align 4 %y, i64 4, i1 false)
  call void @llvm.memcpy.p0.p0.i64(ptr align 4 %agg.tmp37, ptr align 4 %z, i64 4, i1 false)
  %23 = load ptr, ptr %c.addr, align 8
  %coerce.dive38 = getelementptr inbounds %"class.sat::literal", ptr %agg.tmp35, i32 0, i32 0
  %24 = load i32, ptr %coerce.dive38, align 4
  %coerce.dive39 = getelementptr inbounds %"class.sat::literal", ptr %agg.tmp36, i32 0, i32 0
  %25 = load i32, ptr %coerce.dive39, align 4
  %coerce.dive40 = getelementptr inbounds %"class.sat::literal", ptr %agg.tmp37, i32 0, i32 0
  %26 = load i32, ptr %coerce.dive40, align 4
  %call41 = call noundef zeroext i1 @_ZNK3sat11npn3_finder11has_ternaryERK9hashtableINS0_7ternaryENS2_4hashENS2_2eqEENS_7literalES8_S8_RPNS_6clauseE(ptr noundef nonnull align 8 dereferenceable(416) %this4, ptr noundef nonnull align 8 dereferenceable(20) %22, i32 %24, i32 %25, i32 %26, ptr noundef nonnull align 8 dereferenceable(8) %23)
  br i1 %call41, label %if.then42, label %if.end43

if.then42:                                        ; preds = %lor.lhs.false34, %lor.lhs.false26, %lor.lhs.false, %if.end
  store i1 true, ptr %retval, align 1
  br label %return

if.end43:                                         ; preds = %lor.lhs.false34
  store i1 false, ptr %retval, align 1
  br label %return

return:                                           ; preds = %if.end43, %if.then42, %if.then
  %27 = load i1, ptr %retval, align 1
  ret i1 %27
}