; Function Attrs: mustprogress uwtable
define hidden noundef zeroext i1 @_ZNK3sat11npn3_finder14has_quaternaryERK9hashtableINS0_10quaternaryENS2_4hashENS2_2eqEERKS1_INS0_7ternaryENS8_4hashENS8_2eqEENS_7literalESE_SE_SE_RPNS_6clauseE(ptr nocapture noundef nonnull readonly align 8 dereferenceable(416) %this, ptr noundef nonnull align 8 dereferenceable(20) %quaternaries, ptr noundef nonnull align 8 dereferenceable(20) %ternaries, i32 %w.coerce, i32 %x.coerce, i32 %y.coerce, i32 %z.coerce, ptr nocapture noundef nonnull writeonly align 8 dereferenceable(8) %c) local_unnamed_addr #7 align 2 {
entry:
  %q = alloca %"struct.sat::npn3_finder::quaternary", align 8
  store i32 %w.coerce, ptr %q, align 8
  %x.i = getelementptr inbounds i8, ptr %q, i64 4
  store i32 %x.coerce, ptr %x.i, align 4
  %y.i = getelementptr inbounds i8, ptr %q, i64 8
  store i32 %y.coerce, ptr %y.i, align 8
  %z.i = getelementptr inbounds i8, ptr %q, i64 12
  store i32 %z.coerce, ptr %z.i, align 4
  %orig.i = getelementptr inbounds i8, ptr %q, i64 16
  store ptr null, ptr %orig.i, align 8
  %cmp.i = icmp ugt i32 %w.coerce, %x.coerce
  br i1 %cmp.i, label %if.then.i, label %if.end.i

if.then.i:                                        ; preds = %entry
  store i32 %x.coerce, ptr %q, align 8
  store i32 %w.coerce, ptr %x.i, align 4
  br label %if.end.i

if.end.i:                                         ; preds = %if.then.i, %entry
  %0 = phi i32 [ %w.coerce, %if.then.i ], [ %x.coerce, %entry ]
  %1 = phi i32 [ %x.coerce, %if.then.i ], [ %w.coerce, %entry ]
  %cmp14.i = icmp ugt i32 %y.coerce, %z.coerce
  br i1 %cmp14.i, label %if.then15.i, label %if.end18.i

if.then15.i:                                      ; preds = %if.end.i
  store i32 %z.coerce, ptr %y.i, align 8
  store i32 %y.coerce, ptr %z.i, align 4
  br label %if.end18.i

if.end18.i:                                       ; preds = %if.then15.i, %if.end.i
  %2 = phi i32 [ %y.coerce, %if.then15.i ], [ %z.coerce, %if.end.i ]
  %3 = phi i32 [ %z.coerce, %if.then15.i ], [ %y.coerce, %if.end.i ]
  %cmp23.i = icmp ugt i32 %1, %3
  br i1 %cmp23.i, label %if.then24.i, label %if.end27.i

if.then24.i:                                      ; preds = %if.end18.i
  store i32 %3, ptr %q, align 8
  store i32 %1, ptr %y.i, align 8
  br label %if.end27.i

if.end27.i:                                       ; preds = %if.then24.i, %if.end18.i
  %4 = phi i32 [ %1, %if.then24.i ], [ %3, %if.end18.i ]
  %cmp32.i = icmp ugt i32 %0, %2
  br i1 %cmp32.i, label %if.then33.i, label %if.end36.i

if.then33.i:                                      ; preds = %if.end27.i
  store i32 %2, ptr %x.i, align 4
  store i32 %0, ptr %z.i, align 4
  br label %if.end36.i

if.end36.i:                                       ; preds = %if.then33.i, %if.end27.i
  %5 = phi i32 [ %2, %if.then33.i ], [ %0, %if.end27.i ]
  %cmp41.i = icmp ugt i32 %5, %4
  br i1 %cmp41.i, label %if.then42.i, label %_ZN3sat11npn3_finder10quaternaryC2ENS_7literalES2_S2_S2_PNS_6clauseE.exit

if.then42.i:                                      ; preds = %if.end36.i
  store i32 %4, ptr %x.i, align 4
  store i32 %5, ptr %y.i, align 8
  br label %_ZN3sat11npn3_finder10quaternaryC2ENS_7literalES2_S2_S2_PNS_6clauseE.exit

_ZN3sat11npn3_finder10quaternaryC2ENS_7literalES2_S2_S2_PNS_6clauseE.exit: ; preds = %if.end36.i, %if.then42.i
  %call.i = call noundef ptr @_ZNK14core_hashtableI18default_hash_entryIN3sat11npn3_finder10quaternaryEENS3_4hashENS3_2eqEE9find_coreERKS3_(ptr noundef nonnull align 8 dereferenceable(20) %quaternaries, ptr noundef nonnull align 8 dereferenceable(24) %q)
  %cmp.not.i.not = icmp eq ptr %call.i, null
  br i1 %cmp.not.i.not, label %if.end, label %if.then

if.then:                                          ; preds = %_ZN3sat11npn3_finder10quaternaryC2ENS_7literalES2_S2_S2_PNS_6clauseE.exit
  %m_data.i.i = getelementptr inbounds i8, ptr %call.i, i64 8
  call void @llvm.memcpy.p0.p0.i64(ptr noundef nonnull align 8 dereferenceable(24) %q, ptr noundef nonnull align 8 dereferenceable(24) %m_data.i.i, i64 24, i1 false)
  %6 = load ptr, ptr %orig.i, align 8
  store ptr %6, ptr %c, align 8
  br label %return

if.end:                                           ; preds = %_ZN3sat11npn3_finder10quaternaryC2ENS_7literalES2_S2_S2_PNS_6clauseE.exit
  %call18 = call noundef zeroext i1 @_ZNK3sat11npn3_finder11has_ternaryERK9hashtableINS0_7ternaryENS2_4hashENS2_2eqEENS_7literalES8_S8_RPNS_6clauseE(ptr noundef nonnull align 8 dereferenceable(416) %this, ptr noundef nonnull align 8 dereferenceable(20) %ternaries, i32 %w.coerce, i32 %x.coerce, i32 %y.coerce, ptr noundef nonnull align 8 dereferenceable(8) %c)
  br i1 %call18, label %return, label %lor.lhs.false

lor.lhs.false:                                    ; preds = %if.end
  %call25 = call noundef zeroext i1 @_ZNK3sat11npn3_finder11has_ternaryERK9hashtableINS0_7ternaryENS2_4hashENS2_2eqEENS_7literalES8_S8_RPNS_6clauseE(ptr noundef nonnull align 8 dereferenceable(416) %this, ptr noundef nonnull align 8 dereferenceable(20) %ternaries, i32 %w.coerce, i32 %x.coerce, i32 %z.coerce, ptr noundef nonnull align 8 dereferenceable(8) %c)
  br i1 %call25, label %return, label %lor.lhs.false26

lor.lhs.false26:                                  ; preds = %lor.lhs.false
  %call33 = call noundef zeroext i1 @_ZNK3sat11npn3_finder11has_ternaryERK9hashtableINS0_7ternaryENS2_4hashENS2_2eqEENS_7literalES8_S8_RPNS_6clauseE(ptr noundef nonnull align 8 dereferenceable(416) %this, ptr noundef nonnull align 8 dereferenceable(20) %ternaries, i32 %w.coerce, i32 %y.coerce, i32 %z.coerce, ptr noundef nonnull align 8 dereferenceable(8) %c)
  br i1 %call33, label %return, label %lor.lhs.false34

lor.lhs.false34:                                  ; preds = %lor.lhs.false26
  %call41 = call noundef zeroext i1 @_ZNK3sat11npn3_finder11has_ternaryERK9hashtableINS0_7ternaryENS2_4hashENS2_2eqEENS_7literalES8_S8_RPNS_6clauseE(ptr noundef nonnull align 8 dereferenceable(416) %this, ptr noundef nonnull align 8 dereferenceable(20) %ternaries, i32 %x.coerce, i32 %y.coerce, i32 %z.coerce, ptr noundef nonnull align 8 dereferenceable(8) %c)
  br label %return

return:                                           ; preds = %lor.lhs.false34, %if.end, %lor.lhs.false, %lor.lhs.false26, %if.then
  %retval.0 = phi i1 [ true, %if.then ], [ true, %lor.lhs.false26 ], [ true, %lor.lhs.false ], [ true, %if.end ], [ %call41, %lor.lhs.false34 ]
  ret i1 %retval.0
}